target datalayout = "e-m:e-p270:32:32-p271:32:32-p272:64:64-i64:64-i128:128-f80:128-n8:16:32:64-S128"
target triple = "x86_64-pc-linux-gnu"

; Function Attrs: nounwind uwtable
define i64 @ARM_Convert(ptr noundef %0, i64 noundef %1, i32 noundef %2, i32 noundef %3) #0 {
  %5 = alloca i64, align 8
  %6 = alloca ptr, align 8
  %7 = alloca i64, align 8
  %8 = alloca i32, align 4
  %9 = alloca i32, align 4
  %10 = alloca i64, align 8
  %11 = alloca i32, align 4
  %12 = alloca i32, align 4
  %13 = alloca i32, align 4
  store ptr %0, ptr %6, align 8, !tbaa !3
  store i64 %1, ptr %7, align 8, !tbaa !8
  store i32 %2, ptr %8, align 4, !tbaa !10
  store i32 %3, ptr %9, align 4, !tbaa !10
  call void @llvm.lifetime.start.p0(i64 8, ptr %10) #2
  %14 = load i64, ptr %7, align 8, !tbaa !8
  %15 = icmp ult i64 %14, 4
  br i1 %15, label %16, label %17

16:                                               ; preds = %4
  store i64 0, ptr %5, align 8
  store i32 1, ptr %11, align 4
  br label %104

17:                                               ; preds = %4
  %18 = load i64, ptr %7, align 8, !tbaa !8
  %19 = sub i64 %18, 4
  store i64 %19, ptr %7, align 8, !tbaa !8
  %20 = load i32, ptr %8, align 4, !tbaa !10
  %21 = add i32 %20, 8
  store i32 %21, ptr %8, align 4, !tbaa !10
  store i64 0, ptr %10, align 8, !tbaa !8
  br label %22

22:                                               ; preds = %99, %17
  %23 = load i64, ptr %10, align 8, !tbaa !8
  %24 = load i64, ptr %7, align 8, !tbaa !8
  %25 = icmp ule i64 %23, %24
  br i1 %25, label %26, label %102

26:                                               ; preds = %22
  %27 = load ptr, ptr %6, align 8, !tbaa !3
  %28 = load i64, ptr %10, align 8, !tbaa !8
  %29 = add i64 %28, 3
  %30 = getelementptr inbounds nuw i8, ptr %27, i64 %29
  %31 = load i8, ptr %30, align 1, !tbaa !12
  %32 = zext i8 %31 to i32
  %33 = icmp eq i32 %32, 235
  br i1 %33, label %34, label %98

34:                                               ; preds = %26
  call void @llvm.lifetime.start.p0(i64 4, ptr %12) #2
  call void @llvm.lifetime.start.p0(i64 4, ptr %13) #2
  %35 = load ptr, ptr %6, align 8, !tbaa !3
  %36 = load i64, ptr %10, align 8, !tbaa !8
  %37 = add i64 %36, 2
  %38 = getelementptr inbounds nuw i8, ptr %35, i64 %37
  %39 = load i8, ptr %38, align 1, !tbaa !12
  %40 = zext i8 %39 to i32
  %41 = shl i32 %40, 16
  %42 = load ptr, ptr %6, align 8, !tbaa !3
  %43 = load i64, ptr %10, align 8, !tbaa !8
  %44 = add i64 %43, 1
  %45 = getelementptr inbounds nuw i8, ptr %42, i64 %44
  %46 = load i8, ptr %45, align 1, !tbaa !12
  %47 = zext i8 %46 to i32
  %48 = shl i32 %47, 8
  %49 = or i32 %41, %48
  %50 = load ptr, ptr %6, align 8, !tbaa !3
  %51 = load i64, ptr %10, align 8, !tbaa !8
  %52 = add i64 %51, 0
  %53 = getelementptr inbounds nuw i8, ptr %50, i64 %52
  %54 = load i8, ptr %53, align 1, !tbaa !12
  %55 = zext i8 %54 to i32
  %56 = or i32 %49, %55
  store i32 %56, ptr %13, align 4, !tbaa !10
  %57 = load i32, ptr %13, align 4, !tbaa !10
  %58 = shl i32 %57, 2
  store i32 %58, ptr %13, align 4, !tbaa !10
  %59 = load i32, ptr %9, align 4, !tbaa !10
  %60 = icmp ne i32 %59, 0
  br i1 %60, label %61, label %68

61:                                               ; preds = %34
  %62 = load i32, ptr %8, align 4, !tbaa !10
  %63 = load i64, ptr %10, align 8, !tbaa !8
  %64 = trunc i64 %63 to i32
  %65 = add i32 %62, %64
  %66 = load i32, ptr %13, align 4, !tbaa !10
  %67 = add i32 %65, %66
  store i32 %67, ptr %12, align 4, !tbaa !10
  br label %75

68:                                               ; preds = %34
  %69 = load i32, ptr %13, align 4, !tbaa !10
  %70 = load i32, ptr %8, align 4, !tbaa !10
  %71 = load i64, ptr %10, align 8, !tbaa !8
  %72 = trunc i64 %71 to i32
  %73 = add i32 %70, %72
  %74 = sub i32 %69, %73
  store i32 %74, ptr %12, align 4, !tbaa !10
  br label %75

75:                                               ; preds = %68, %61
  %76 = load i32, ptr %12, align 4, !tbaa !10
  %77 = lshr i32 %76, 2
  store i32 %77, ptr %12, align 4, !tbaa !10
  %78 = load i32, ptr %12, align 4, !tbaa !10
  %79 = lshr i32 %78, 16
  %80 = trunc i32 %79 to i8
  %81 = load ptr, ptr %6, align 8, !tbaa !3
  %82 = load i64, ptr %10, align 8, !tbaa !8
  %83 = add i64 %82, 2
  %84 = getelementptr inbounds nuw i8, ptr %81, i64 %83
  store i8 %80, ptr %84, align 1, !tbaa !12
  %85 = load i32, ptr %12, align 4, !tbaa !10
  %86 = lshr i32 %85, 8
  %87 = trunc i32 %86 to i8
  %88 = load ptr, ptr %6, align 8, !tbaa !3
  %89 = load i64, ptr %10, align 8, !tbaa !8
  %90 = add i64 %89, 1
  %91 = getelementptr inbounds nuw i8, ptr %88, i64 %90
  store i8 %87, ptr %91, align 1, !tbaa !12
  %92 = load i32, ptr %12, align 4, !tbaa !10
  %93 = trunc i32 %92 to i8
  %94 = load ptr, ptr %6, align 8, !tbaa !3
  %95 = load i64, ptr %10, align 8, !tbaa !8
  %96 = add i64 %95, 0
  %97 = getelementptr inbounds nuw i8, ptr %94, i64 %96
  store i8 %93, ptr %97, align 1, !tbaa !12
  call void @llvm.lifetime.end.p0(i64 4, ptr %13) #2
  call void @llvm.lifetime.end.p0(i64 4, ptr %12) #2
  br label %98

98:                                               ; preds = %75, %26
  br label %99

99:                                               ; preds = %98
  %100 = load i64, ptr %10, align 8, !tbaa !8
  %101 = add i64 %100, 4
  store i64 %101, ptr %10, align 8, !tbaa !8
  br label %22

102:                                              ; preds = %22
  %103 = load i64, ptr %10, align 8, !tbaa !8
  store i64 %103, ptr %5, align 8
  store i32 1, ptr %11, align 4
  br label %104

104:                                              ; preds = %102, %16
  call void @llvm.lifetime.end.p0(i64 8, ptr %10) #2
  %105 = load i64, ptr %5, align 8
  ret i64 %105
}