; Function Attrs: nofree norecurse nosync nounwind memory(argmem: readwrite) uwtable
define range(i64 4, 1) i64 @ARM_Convert(ptr noundef captures(none) %0, i64 noundef %1, i32 noundef %2, i32 noundef %3) local_unnamed_addr #0 {
  %5 = icmp ult i64 %1, 4
  br i1 %5, label %.loopexit, label %6

6:                                                ; preds = %4
  %7 = add i64 %1, -4
  %8 = add i32 %2, 8
  %.not36 = icmp eq i32 %3, 0
  br i1 %.not36, label %.split.us, label %.split

.split.us:                                        ; preds = %6, %38
  %.03337.us = phi i64 [ %39, %38 ], [ 0, %6 ]
  %9 = or disjoint i64 %.03337.us, 3
  %10 = getelementptr inbounds nuw i8, ptr %0, i64 %9
  %11 = load i8, ptr %10, align 1, !tbaa !3
  %12 = icmp eq i8 %11, -21
  br i1 %12, label %13, label %38

13:                                               ; preds = %.split.us
  %14 = or disjoint i64 %.03337.us, 2
  %15 = getelementptr inbounds nuw i8, ptr %0, i64 %14
  %16 = load i8, ptr %15, align 1, !tbaa !3
  %17 = zext i8 %16 to i32
  %18 = shl nuw nsw i32 %17, 16
  %19 = or disjoint i64 %.03337.us, 1
  %20 = getelementptr inbounds nuw i8, ptr %0, i64 %19
  %21 = load i8, ptr %20, align 1, !tbaa !3
  %22 = zext i8 %21 to i32
  %23 = shl nuw nsw i32 %22, 8
  %24 = or disjoint i32 %23, %18
  %25 = getelementptr inbounds nuw i8, ptr %0, i64 %.03337.us
  %26 = load i8, ptr %25, align 1, !tbaa !3
  %27 = zext i8 %26 to i32
  %28 = or disjoint i32 %24, %27
  %29 = shl nuw nsw i32 %28, 2
  %30 = trunc i64 %.03337.us to i32
  %31 = add i32 %8, %30
  %.0.us = sub i32 %29, %31
  %32 = lshr i32 %.0.us, 2
  %33 = lshr i32 %.0.us, 18
  %34 = trunc i32 %33 to i8
  store i8 %34, ptr %15, align 1, !tbaa !3
  %35 = lshr i32 %.0.us, 10
  %36 = trunc i32 %35 to i8
  store i8 %36, ptr %20, align 1, !tbaa !3
  %37 = trunc i32 %32 to i8
  store i8 %37, ptr %25, align 1, !tbaa !3
  br label %38

38:                                               ; preds = %13, %.split.us
  %39 = add nuw i64 %.03337.us, 4
  %.not.us = icmp ugt i64 %39, %7
  br i1 %.not.us, label %.loopexit, label %.split.us

.split:                                           ; preds = %6, %69
  %.03337 = phi i64 [ %70, %69 ], [ 0, %6 ]
  %40 = or disjoint i64 %.03337, 3
  %41 = getelementptr inbounds nuw i8, ptr %0, i64 %40
  %42 = load i8, ptr %41, align 1, !tbaa !3
  %43 = icmp eq i8 %42, -21
  br i1 %43, label %44, label %69

44:                                               ; preds = %.split
  %45 = or disjoint i64 %.03337, 2
  %46 = getelementptr inbounds nuw i8, ptr %0, i64 %45
  %47 = load i8, ptr %46, align 1, !tbaa !3
  %48 = zext i8 %47 to i32
  %49 = shl nuw nsw i32 %48, 16
  %50 = or disjoint i64 %.03337, 1
  %51 = getelementptr inbounds nuw i8, ptr %0, i64 %50
  %52 = load i8, ptr %51, align 1, !tbaa !3
  %53 = zext i8 %52 to i32
  %54 = shl nuw nsw i32 %53, 8
  %55 = or disjoint i32 %54, %49
  %56 = getelementptr inbounds nuw i8, ptr %0, i64 %.03337
  %57 = load i8, ptr %56, align 1, !tbaa !3
  %58 = zext i8 %57 to i32
  %59 = or disjoint i32 %55, %58
  %60 = shl nuw nsw i32 %59, 2
  %61 = trunc i64 %.03337 to i32
  %62 = add i32 %8, %61
  %.0 = add i32 %60, %62
  %63 = lshr i32 %.0, 2
  %64 = lshr i32 %.0, 18
  %65 = trunc i32 %64 to i8
  store i8 %65, ptr %46, align 1, !tbaa !3
  %66 = lshr i32 %.0, 10
  %67 = trunc i32 %66 to i8
  store i8 %67, ptr %51, align 1, !tbaa !3
  %68 = trunc i32 %63 to i8
  store i8 %68, ptr %56, align 1, !tbaa !3
  br label %69

69:                                               ; preds = %.split, %44
  %70 = add nuw i64 %.03337, 4
  %.not = icmp ugt i64 %70, %7
  br i1 %.not, label %.loopexit, label %.split

.loopexit:                                        ; preds = %69, %38, %4
  %.034 = phi i64 [ 0, %4 ], [ %39, %38 ], [ %70, %69 ]
  ret i64 %.034
}